; Function Attrs: nounwind uwtable
define internal ptr @lxb_html_tokenizer_state_comment_less_than_sign(ptr nocapture noundef %0, ptr noundef readonly %1, ptr noundef readnone %2) #0 {
  %4 = load i8, ptr %1, align 1
  switch i8 %4, label %57 [
    i8 33, label %5
    i8 60, label %31
  ]

5:                                                ; preds = %3
  %6 = getelementptr inbounds i8, ptr %0, i64 136
  %7 = load ptr, ptr %6, align 8
  %8 = getelementptr inbounds i8, ptr %7, i64 1
  %9 = getelementptr inbounds i8, ptr %0, i64 144
  %10 = load ptr, ptr %9, align 8
  %11 = icmp ugt ptr %8, %10
  br i1 %11, label %12, label %26

12:                                               ; preds = %5
  %13 = getelementptr inbounds i8, ptr %0, i64 128
  %14 = load ptr, ptr %13, align 8
  %15 = ptrtoint ptr %14 to i64
  %16 = ptrtoint ptr %10 to i64
  %17 = add i64 %16, 4097
  %18 = sub i64 %17, %15
  %19 = tail call ptr @lexbor_realloc(ptr noundef %14, i64 noundef %18) #5
  store ptr %19, ptr %13, align 8
  %20 = icmp eq ptr %19, null
  br i1 %20, label %lxb_html_tokenizer_temp_append.exit, label %lxb_html_tokenizer_temp_realloc.exit.thread.i

lxb_html_tokenizer_temp_realloc.exit.thread.i:    ; preds = %12
  %21 = ptrtoint ptr %7 to i64
  %22 = sub i64 %21, %15
  %23 = getelementptr inbounds i8, ptr %19, i64 %22
  store ptr %23, ptr %6, align 8
  %24 = getelementptr inbounds i8, ptr %19, i64 %18
  store ptr %24, ptr %9, align 8
  %.pre24 = load i8, ptr %1, align 1
  br label %26

lxb_html_tokenizer_temp_append.exit:              ; preds = %12
  %25 = getelementptr inbounds i8, ptr %0, i64 232
  store i32 2, ptr %25, align 8
  br label %58

26:                                               ; preds = %5, %lxb_html_tokenizer_temp_realloc.exit.thread.i
  %27 = phi i8 [ %.pre24, %lxb_html_tokenizer_temp_realloc.exit.thread.i ], [ 33, %5 ]
  %28 = phi ptr [ %23, %lxb_html_tokenizer_temp_realloc.exit.thread.i ], [ %7, %5 ]
  store i8 %27, ptr %28, align 1
  %29 = getelementptr inbounds i8, ptr %28, i64 1
  store ptr %29, ptr %6, align 8
  store ptr @lxb_html_tokenizer_state_comment_less_than_sign_bang, ptr %0, align 8
  %30 = getelementptr inbounds i8, ptr %1, i64 1
  br label %58

31:                                               ; preds = %3
  %32 = getelementptr inbounds i8, ptr %0, i64 136
  %33 = load ptr, ptr %32, align 8
  %34 = getelementptr inbounds i8, ptr %33, i64 1
  %35 = getelementptr inbounds i8, ptr %0, i64 144
  %36 = load ptr, ptr %35, align 8
  %37 = icmp ugt ptr %34, %36
  br i1 %37, label %38, label %52

38:                                               ; preds = %31
  %39 = getelementptr inbounds i8, ptr %0, i64 128
  %40 = load ptr, ptr %39, align 8
  %41 = ptrtoint ptr %40 to i64
  %42 = ptrtoint ptr %36 to i64
  %43 = add i64 %42, 4097
  %44 = sub i64 %43, %41
  %45 = tail call ptr @lexbor_realloc(ptr noundef %40, i64 noundef %44) #5
  store ptr %45, ptr %39, align 8
  %46 = icmp eq ptr %45, null
  br i1 %46, label %lxb_html_tokenizer_temp_append.exit18, label %lxb_html_tokenizer_temp_realloc.exit.thread.i17

lxb_html_tokenizer_temp_realloc.exit.thread.i17:  ; preds = %38
  %47 = ptrtoint ptr %33 to i64
  %48 = sub i64 %47, %41
  %49 = getelementptr inbounds i8, ptr %45, i64 %48
  store ptr %49, ptr %32, align 8
  %50 = getelementptr inbounds i8, ptr %45, i64 %44
  store ptr %50, ptr %35, align 8
  %.pre = load i8, ptr %1, align 1
  br label %52

lxb_html_tokenizer_temp_append.exit18:            ; preds = %38
  %51 = getelementptr inbounds i8, ptr %0, i64 232
  store i32 2, ptr %51, align 8
  br label %58

52:                                               ; preds = %31, %lxb_html_tokenizer_temp_realloc.exit.thread.i17
  %53 = phi i8 [ %.pre, %lxb_html_tokenizer_temp_realloc.exit.thread.i17 ], [ 60, %31 ]
  %54 = phi ptr [ %49, %lxb_html_tokenizer_temp_realloc.exit.thread.i17 ], [ %33, %31 ]
  store i8 %53, ptr %54, align 1
  %55 = getelementptr inbounds i8, ptr %54, i64 1
  store ptr %55, ptr %32, align 8
  %56 = getelementptr inbounds i8, ptr %1, i64 1
  br label %58

57:                                               ; preds = %3
  store ptr @lxb_html_tokenizer_state_comment, ptr %0, align 8
  br label %58

58:                                               ; preds = %52, %lxb_html_tokenizer_temp_append.exit18, %lxb_html_tokenizer_temp_append.exit, %57, %26
  %.0 = phi ptr [ %30, %26 ], [ %1, %57 ], [ %2, %lxb_html_tokenizer_temp_append.exit ], [ %56, %52 ], [ %2, %lxb_html_tokenizer_temp_append.exit18 ]
  ret ptr %.0
}